; Function Attrs: mustprogress nofree norecurse nosync nounwind willreturn memory(read, inaccessiblemem: none) uwtable
define dso_local { <2 x float>, <2 x float> } @_ZNK32btDeformableNodeAnchorConstraint5getVbEv(ptr noundef nonnull readonly align 8 captures(none) dereferenceable(48) %0) unnamed_addr #6 align 2 {
  %2 = getelementptr inbounds nuw i8, ptr %0, i64 40
  %3 = load ptr, ptr %2, align 8, !tbaa !17
  %4 = getelementptr inbounds nuw i8, ptr %3, i64 848
  %5 = load ptr, ptr %4, align 8, !tbaa !71
  %6 = getelementptr inbounds nuw i8, ptr %5, i64 48
  %.sroa.0.0.copyload = load <2 x float>, ptr %6, align 8
  %.sroa.2.0..sroa_idx = getelementptr inbounds nuw i8, ptr %5, i64 56
  %.sroa.2.0.copyload = load <2 x float>, ptr %.sroa.2.0..sroa_idx, align 8, !tbaa !16
  %.fca.0.insert = insertvalue { <2 x float>, <2 x float> } poison, <2 x float> %.sroa.0.0.copyload, 0
  %.fca.1.insert = insertvalue { <2 x float>, <2 x float> } %.fca.0.insert, <2 x float> %.sroa.2.0.copyload, 1
  ret { <2 x float>, <2 x float> } %.fca.1.insert
}